target datalayout = "e-m:e-p270:32:32-p271:32:32-p272:64:64-i64:64-i128:128-f80:128-n8:16:32:64-S128"
target triple = "x86_64-pc-linux-gnu"

%struct.slurmdb_tres_cond_t = type { i64, ptr, ptr, ptr, ptr, i16 }

; Function Attrs: nounwind uwtable
define internal void @_free_tres_cond_members(ptr noundef %0) #0 {
  %2 = alloca ptr, align 8
  store ptr %0, ptr %2, align 8
  %3 = load ptr, ptr %2, align 8
  %4 = icmp ne ptr %3, null
  br i1 %4, label %5, label %45

5:                                                ; preds = %1
  br label %6

6:                                                ; preds = %5
  %7 = load ptr, ptr %2, align 8
  %8 = getelementptr inbounds nuw %struct.slurmdb_tres_cond_t, ptr %7, i32 0, i32 2
  %9 = load ptr, ptr %8, align 8
  %10 = icmp ne ptr %9, null
  br i1 %10, label %11, label %15

11:                                               ; preds = %6
  %12 = load ptr, ptr %2, align 8
  %13 = getelementptr inbounds nuw %struct.slurmdb_tres_cond_t, ptr %12, i32 0, i32 2
  %14 = load ptr, ptr %13, align 8
  call void @list_destroy(ptr noundef %14)
  br label %15

15:                                               ; preds = %11, %6
  %16 = load ptr, ptr %2, align 8
  %17 = getelementptr inbounds nuw %struct.slurmdb_tres_cond_t, ptr %16, i32 0, i32 2
  store ptr null, ptr %17, align 8
  br label %18

18:                                               ; preds = %15
  br label %19

19:                                               ; preds = %18
  %20 = load ptr, ptr %2, align 8
  %21 = getelementptr inbounds nuw %struct.slurmdb_tres_cond_t, ptr %20, i32 0, i32 3
  %22 = load ptr, ptr %21, align 8
  %23 = icmp ne ptr %22, null
  br i1 %23, label %24, label %28

24:                                               ; preds = %19
  %25 = load ptr, ptr %2, align 8
  %26 = getelementptr inbounds nuw %struct.slurmdb_tres_cond_t, ptr %25, i32 0, i32 3
  %27 = load ptr, ptr %26, align 8
  call void @list_destroy(ptr noundef %27)
  br label %28

28:                                               ; preds = %24, %19
  %29 = load ptr, ptr %2, align 8
  %30 = getelementptr inbounds nuw %struct.slurmdb_tres_cond_t, ptr %29, i32 0, i32 3
  store ptr null, ptr %30, align 8
  br label %31

31:                                               ; preds = %28
  br label %32

32:                                               ; preds = %31
  %33 = load ptr, ptr %2, align 8
  %34 = getelementptr inbounds nuw %struct.slurmdb_tres_cond_t, ptr %33, i32 0, i32 4
  %35 = load ptr, ptr %34, align 8
  %36 = icmp ne ptr %35, null
  br i1 %36, label %37, label %41

37:                                               ; preds = %32
  %38 = load ptr, ptr %2, align 8
  %39 = getelementptr inbounds nuw %struct.slurmdb_tres_cond_t, ptr %38, i32 0, i32 4
  %40 = load ptr, ptr %39, align 8
  call void @list_destroy(ptr noundef %40)
  br label %41

41:                                               ; preds = %37, %32
  %42 = load ptr, ptr %2, align 8
  %43 = getelementptr inbounds nuw %struct.slurmdb_tres_cond_t, ptr %42, i32 0, i32 4
  store ptr null, ptr %43, align 8
  br label %44

44:                                               ; preds = %41
  br label %45

45:                                               ; preds = %44, %1
  ret void
}

; Function Attrs: nounwind uwtable
define dso_local void @slurmdb_init_tres_cond(ptr noundef %0, i1 noundef zeroext %1) #0 {
  %3 = alloca ptr, align 8
  %4 = alloca i8, align 1
  store ptr %0, ptr %3, align 8
  %5 = zext i1 %1 to i8
  store i8 %5, ptr %4, align 1
  %6 = load ptr, ptr %3, align 8
  %7 = icmp ne ptr %6, null
  br i1 %7, label %9, label %8

8:                                                ; preds = %2
  br label %18

9:                                                ; preds = %2
  %10 = load i8, ptr %4, align 1, !range !12, !noundef !13
  %11 = trunc i8 %10 to i1
  br i1 %11, label %12, label %14

12:                                               ; preds = %9
  %13 = load ptr, ptr %3, align 8
  call void @_free_tres_cond_members(ptr noundef %13)
  br label %14

14:                                               ; preds = %12, %9
  %15 = load ptr, ptr %3, align 8
  call void @llvm.memset.p0.i64(ptr align 8 %15, i8 0, i64 48, i1 false)
  %16 = load ptr, ptr %3, align 8
  %17 = getelementptr inbounds nuw %struct.slurmdb_tres_cond_t, ptr %16, i32 0, i32 0
  store i64 4294967294, ptr %17, align 8
  br label %18

18:                                               ; preds = %14, %8
  ret void
}