; Function Attrs: nounwind uwtable
define dso_local void @slurmdb_init_tres_cond(ptr noundef captures(address_is_null) %0, i1 noundef zeroext %1) local_unnamed_addr #0 {
  %.not = icmp eq ptr %0, null
  br i1 %.not, label %17, label %3

3:                                                ; preds = %2
  br i1 %1, label %4, label %_free_tres_cond_members.exit

4:                                                ; preds = %3
  %5 = getelementptr inbounds nuw i8, ptr %0, i64 16
  %6 = load ptr, ptr %5, align 8
  %.not.i = icmp eq ptr %6, null
  br i1 %.not.i, label %8, label %7

7:                                                ; preds = %4
  tail call void @list_destroy(ptr noundef nonnull %6) #19
  br label %8

8:                                                ; preds = %7, %4
  store ptr null, ptr %5, align 8
  %9 = getelementptr inbounds nuw i8, ptr %0, i64 24
  %10 = load ptr, ptr %9, align 8
  %.not13.i = icmp eq ptr %10, null
  br i1 %.not13.i, label %12, label %11

11:                                               ; preds = %8
  tail call void @list_destroy(ptr noundef nonnull %10) #19
  br label %12

12:                                               ; preds = %11, %8
  store ptr null, ptr %9, align 8
  %13 = getelementptr inbounds nuw i8, ptr %0, i64 32
  %14 = load ptr, ptr %13, align 8
  %.not14.i = icmp eq ptr %14, null
  br i1 %.not14.i, label %_free_tres_cond_members.exit, label %15

15:                                               ; preds = %12
  tail call void @list_destroy(ptr noundef nonnull %14) #19
  br label %_free_tres_cond_members.exit

_free_tres_cond_members.exit:                     ; preds = %15, %12, %3
  %16 = getelementptr inbounds nuw i8, ptr %0, i64 8
  tail call void @llvm.memset.p0.i64(ptr noundef nonnull align 8 dereferenceable(48) %16, i8 0, i64 40, i1 false)
  store i64 4294967294, ptr %0, align 8
  br label %17

17:                                               ; preds = %2, %_free_tres_cond_members.exit
  ret void
}